target datalayout = "e-m:e-p270:32:32-p271:32:32-p272:64:64-i64:64-i128:128-f80:128-n8:16:32:64-S128"
target triple = "x86_64-pc-linux-gnu"

%struct.Abc_Ntk_t_ = type { i32, i32, ptr, ptr, ptr, ptr, ptr, ptr, ptr, ptr, ptr, ptr, ptr, [11 x i32], i32, i32, i32, i32, ptr, i32, ptr, ptr, i32, i32, i32, double, i32, %struct.Vec_Int_t_, ptr, ptr, ptr, ptr, ptr, float, i32, ptr, ptr, ptr, ptr, ptr, ptr, ptr, ptr, ptr, ptr, ptr, ptr, ptr, ptr, ptr, ptr, ptr, ptr, ptr, ptr, ptr, ptr }
%struct.Vec_Int_t_ = type { i32, i32, ptr }
%struct.Abc_Obj_t_ = type { ptr, ptr, i32, i32, %struct.Vec_Int_t_, %struct.Vec_Int_t_, %union.anon.0, %union.anon.1 }
%union.anon.0 = type { ptr }
%union.anon.1 = type { ptr }
%struct.Vec_Ptr_t_ = type { i32, i32, ptr }

@.str = private unnamed_addr constant [39 x i8] c"\09initial states {0,1,x} = {%d, %d, %d}\00", align 1
@.str.1 = private unnamed_addr constant [14 x i8] c" + %d UNKNOWN\00", align 1
@.str.2 = private unnamed_addr constant [2 x i8] c"\0A\00", align 1

; Function Attrs: inlinehint nounwind uwtable
define internal ptr @Vec_PtrEntry(ptr noundef %0, i32 noundef %1) #2 {
  %3 = alloca ptr, align 8
  %4 = alloca i32, align 4
  store ptr %0, ptr %3, align 8, !tbaa !39
  store i32 %1, ptr %4, align 4, !tbaa !19
  %5 = load ptr, ptr %3, align 8, !tbaa !39
  %6 = getelementptr inbounds nuw %struct.Vec_Ptr_t_, ptr %5, i32 0, i32 2
  %7 = load ptr, ptr %6, align 8, !tbaa !55
  %8 = load i32, ptr %4, align 4, !tbaa !19
  %9 = sext i32 %8 to i64
  %10 = getelementptr inbounds ptr, ptr %7, i64 %9
  %11 = load ptr, ptr %10, align 8, !tbaa !57
  ret ptr %11
}

; Function Attrs: inlinehint nounwind uwtable
define internal i32 @Abc_LatchIsInitDc(ptr noundef %0) #2 {
  %2 = alloca ptr, align 8
  store ptr %0, ptr %2, align 8, !tbaa !34
  %3 = load ptr, ptr %2, align 8, !tbaa !34
  %4 = getelementptr inbounds nuw %struct.Abc_Obj_t_, ptr %3, i32 0, i32 6
  %5 = load ptr, ptr %4, align 8, !tbaa !42
  %6 = icmp eq ptr %5, inttoptr (i64 3 to ptr)
  %7 = zext i1 %6 to i32
  ret i32 %7
}

; Function Attrs: inlinehint nounwind uwtable
define internal i32 @Abc_LatchIsInit1(ptr noundef %0) #2 {
  %2 = alloca ptr, align 8
  store ptr %0, ptr %2, align 8, !tbaa !34
  %3 = load ptr, ptr %2, align 8, !tbaa !34
  %4 = getelementptr inbounds nuw %struct.Abc_Obj_t_, ptr %3, i32 0, i32 6
  %5 = load ptr, ptr %4, align 8, !tbaa !42
  %6 = icmp eq ptr %5, inttoptr (i64 2 to ptr)
  %7 = zext i1 %6 to i32
  ret i32 %7
}

; Function Attrs: inlinehint nounwind uwtable
define internal i32 @Abc_LatchIsInit0(ptr noundef %0) #2 {
  %2 = alloca ptr, align 8
  store ptr %0, ptr %2, align 8, !tbaa !34
  %3 = load ptr, ptr %2, align 8, !tbaa !34
  %4 = getelementptr inbounds nuw %struct.Abc_Obj_t_, ptr %3, i32 0, i32 6
  %5 = load ptr, ptr %4, align 8, !tbaa !42
  %6 = icmp eq ptr %5, inttoptr (i64 1 to ptr)
  %7 = zext i1 %6 to i32
  ret i32 %7
}

; Function Attrs: inlinehint nounwind uwtable
define internal i32 @Abc_ObjIsLatch(ptr noundef %0) #2 {
  %2 = alloca ptr, align 8
  store ptr %0, ptr %2, align 8, !tbaa !34
  %3 = load ptr, ptr %2, align 8, !tbaa !34
  %4 = getelementptr inbounds nuw %struct.Abc_Obj_t_, ptr %3, i32 0, i32 3
  %5 = load i32, ptr %4, align 4
  %6 = and i32 %5, 15
  %7 = icmp eq i32 %6, 8
  %8 = zext i1 %7 to i32
  ret i32 %8
}

; Function Attrs: inlinehint nounwind uwtable
define internal ptr @Abc_NtkBox(ptr noundef %0, i32 noundef %1) #2 {
  %3 = alloca ptr, align 8
  %4 = alloca i32, align 4
  store ptr %0, ptr %3, align 8, !tbaa !3
  store i32 %1, ptr %4, align 4, !tbaa !19
  %5 = load ptr, ptr %3, align 8, !tbaa !3
  %6 = getelementptr inbounds nuw %struct.Abc_Ntk_t_, ptr %5, i32 0, i32 11
  %7 = load ptr, ptr %6, align 8, !tbaa !20
  %8 = load i32, ptr %4, align 4, !tbaa !19
  %9 = call ptr @Vec_PtrEntry(ptr noundef %7, i32 noundef %8)
  ret ptr %9
}

; Function Attrs: inlinehint nounwind uwtable
define internal i32 @Vec_PtrSize(ptr noundef %0) #2 {
  %2 = alloca ptr, align 8
  store ptr %0, ptr %2, align 8, !tbaa !39
  %3 = load ptr, ptr %2, align 8, !tbaa !39
  %4 = getelementptr inbounds nuw %struct.Vec_Ptr_t_, ptr %3, i32 0, i32 1
  %5 = load i32, ptr %4, align 4, !tbaa !49
  ret i32 %5
}

; Function Attrs: nounwind uwtable
define void @Abc_FlowRetime_PrintInitStateInfo(ptr noundef %0) #0 {
  %2 = alloca ptr, align 8
  %3 = alloca i32, align 4
  %4 = alloca i32, align 4
  %5 = alloca i32, align 4
  %6 = alloca i32, align 4
  %7 = alloca i32, align 4
  %8 = alloca ptr, align 8
  store ptr %0, ptr %2, align 8, !tbaa !3
  call void @llvm.lifetime.start.p0(i64 4, ptr %3) #10
  call void @llvm.lifetime.start.p0(i64 4, ptr %4) #10
  store i32 0, ptr %4, align 4, !tbaa !19
  call void @llvm.lifetime.start.p0(i64 4, ptr %5) #10
  store i32 0, ptr %5, align 4, !tbaa !19
  call void @llvm.lifetime.start.p0(i64 4, ptr %6) #10
  store i32 0, ptr %6, align 4, !tbaa !19
  call void @llvm.lifetime.start.p0(i64 4, ptr %7) #10
  store i32 0, ptr %7, align 4, !tbaa !19
  call void @llvm.lifetime.start.p0(i64 8, ptr %8) #10
  store i32 0, ptr %3, align 4, !tbaa !19
  br label %9

9:                                                ; preds = %55, %1
  %10 = load i32, ptr %3, align 4, !tbaa !19
  %11 = load ptr, ptr %2, align 8, !tbaa !3
  %12 = getelementptr inbounds nuw %struct.Abc_Ntk_t_, ptr %11, i32 0, i32 11
  %13 = load ptr, ptr %12, align 8, !tbaa !20
  %14 = call i32 @Vec_PtrSize(ptr noundef %13)
  %15 = icmp slt i32 %10, %14
  br i1 %15, label %16, label %20

16:                                               ; preds = %9
  %17 = load ptr, ptr %2, align 8, !tbaa !3
  %18 = load i32, ptr %3, align 4, !tbaa !19
  %19 = call ptr @Abc_NtkBox(ptr noundef %17, i32 noundef %18)
  store ptr %19, ptr %8, align 8, !tbaa !34
  br label %20

20:                                               ; preds = %16, %9
  %21 = phi i1 [ false, %9 ], [ true, %16 ]
  br i1 %21, label %22, label %58

22:                                               ; preds = %20
  %23 = load ptr, ptr %8, align 8, !tbaa !34
  %24 = call i32 @Abc_ObjIsLatch(ptr noundef %23)
  %25 = icmp ne i32 %24, 0
  br i1 %25, label %27, label %26

26:                                               ; preds = %22
  br label %54

27:                                               ; preds = %22
  %28 = load ptr, ptr %8, align 8, !tbaa !34
  %29 = call i32 @Abc_LatchIsInit0(ptr noundef %28)
  %30 = icmp ne i32 %29, 0
  br i1 %30, label %31, label %34

31:                                               ; preds = %27
  %32 = load i32, ptr %4, align 4, !tbaa !19
  %33 = add nsw i32 %32, 1
  store i32 %33, ptr %4, align 4, !tbaa !19
  br label %53

34:                                               ; preds = %27
  %35 = load ptr, ptr %8, align 8, !tbaa !34
  %36 = call i32 @Abc_LatchIsInit1(ptr noundef %35)
  %37 = icmp ne i32 %36, 0
  br i1 %37, label %38, label %41

38:                                               ; preds = %34
  %39 = load i32, ptr %5, align 4, !tbaa !19
  %40 = add nsw i32 %39, 1
  store i32 %40, ptr %5, align 4, !tbaa !19
  br label %52

41:                                               ; preds = %34
  %42 = load ptr, ptr %8, align 8, !tbaa !34
  %43 = call i32 @Abc_LatchIsInitDc(ptr noundef %42)
  %44 = icmp ne i32 %43, 0
  br i1 %44, label %45, label %48

45:                                               ; preds = %41
  %46 = load i32, ptr %6, align 4, !tbaa !19
  %47 = add nsw i32 %46, 1
  store i32 %47, ptr %6, align 4, !tbaa !19
  br label %51

48:                                               ; preds = %41
  %49 = load i32, ptr %7, align 4, !tbaa !19
  %50 = add nsw i32 %49, 1
  store i32 %50, ptr %7, align 4, !tbaa !19
  br label %51

51:                                               ; preds = %48, %45
  br label %52

52:                                               ; preds = %51, %38
  br label %53

53:                                               ; preds = %52, %31
  br label %54

54:                                               ; preds = %53, %26
  br label %55

55:                                               ; preds = %54
  %56 = load i32, ptr %3, align 4, !tbaa !19
  %57 = add nsw i32 %56, 1
  store i32 %57, ptr %3, align 4, !tbaa !19
  br label %9, !llvm.loop !48

58:                                               ; preds = %20
  %59 = load i32, ptr %4, align 4, !tbaa !19
  %60 = load i32, ptr %5, align 4, !tbaa !19
  %61 = load i32, ptr %6, align 4, !tbaa !19
  %62 = call i32 (ptr, ...) @printf(ptr noundef @.str, i32 noundef %59, i32 noundef %60, i32 noundef %61)
  %63 = load i32, ptr %7, align 4, !tbaa !19
  %64 = icmp ne i32 %63, 0
  br i1 %64, label %65, label %68

65:                                               ; preds = %58
  %66 = load i32, ptr %7, align 4, !tbaa !19
  %67 = call i32 (ptr, ...) @printf(ptr noundef @.str.1, i32 noundef %66)
  br label %68

68:                                               ; preds = %65, %58
  %69 = call i32 (ptr, ...) @printf(ptr noundef @.str.2)
  call void @llvm.lifetime.end.p0(i64 8, ptr %8) #10
  call void @llvm.lifetime.end.p0(i64 4, ptr %7) #10
  call void @llvm.lifetime.end.p0(i64 4, ptr %6) #10
  call void @llvm.lifetime.end.p0(i64 4, ptr %5) #10
  call void @llvm.lifetime.end.p0(i64 4, ptr %4) #10
  call void @llvm.lifetime.end.p0(i64 4, ptr %3) #10
  ret void
}