; Function Attrs: nofree nounwind uwtable
define void @Abc_FlowRetime_PrintInitStateInfo(ptr noundef readonly captures(none) %0) local_unnamed_addr #1 {
  %2 = getelementptr inbounds nuw i8, ptr %0, i64 80
  %3 = load ptr, ptr %2, align 8, !tbaa !40
  %4 = getelementptr i8, ptr %3, i64 4
  %.val = load i32, ptr %4, align 4, !tbaa !33
  %5 = icmp sgt i32 %.val, 0
  br i1 %5, label %.lr.ph, label %.critedge.thread

.critedge.thread:                                 ; preds = %1
  %6 = tail call i32 (ptr, ...) @printf(ptr noundef nonnull dereferenceable(1) @.str, i32 noundef 0, i32 noundef 0, i32 noundef 0)
  br label %27

.lr.ph:                                           ; preds = %1
  %7 = getelementptr i8, ptr %3, i64 8
  %.val28.val = load ptr, ptr %7, align 8, !tbaa !41
  %wide.trip.count = zext nneg i32 %.val to i64
  br label %8

8:                                                ; preds = %.lr.ph, %23
  %indvars.iv = phi i64 [ 0, %.lr.ph ], [ %indvars.iv.next, %23 ]
  %.01741 = phi i32 [ 0, %.lr.ph ], [ %.1, %23 ]
  %.01840 = phi i32 [ 0, %.lr.ph ], [ %.119, %23 ]
  %.02039 = phi i32 [ 0, %.lr.ph ], [ %.121, %23 ]
  %.02238 = phi i32 [ 0, %.lr.ph ], [ %.123, %23 ]
  %9 = getelementptr inbounds nuw ptr, ptr %.val28.val, i64 %indvars.iv
  %10 = load ptr, ptr %9, align 8, !tbaa !42
  %11 = getelementptr i8, ptr %10, i64 20
  %.val29 = load i32, ptr %11, align 4
  %12 = and i32 %.val29, 15
  %.not33 = icmp eq i32 %12, 8
  br i1 %.not33, label %13, label %23

13:                                               ; preds = %8
  %14 = getelementptr i8, ptr %10, i64 56
  %.val30 = load ptr, ptr %14, align 8, !tbaa !49
  %magicptr37 = ptrtoint ptr %.val30 to i64
  switch i64 %magicptr37, label %21 [
    i64 1, label %15
    i64 2, label %17
    i64 3, label %19
  ]

15:                                               ; preds = %13
  %16 = add nsw i32 %.02238, 1
  br label %23

17:                                               ; preds = %13
  %18 = add nsw i32 %.02039, 1
  br label %23

19:                                               ; preds = %13
  %20 = add nsw i32 %.01840, 1
  br label %23

21:                                               ; preds = %13
  %22 = add nsw i32 %.01741, 1
  br label %23

23:                                               ; preds = %8, %17, %21, %19, %15
  %.123 = phi i32 [ %16, %15 ], [ %.02238, %17 ], [ %.02238, %19 ], [ %.02238, %21 ], [ %.02238, %8 ]
  %.121 = phi i32 [ %.02039, %15 ], [ %18, %17 ], [ %.02039, %19 ], [ %.02039, %21 ], [ %.02039, %8 ]
  %.119 = phi i32 [ %.01840, %15 ], [ %.01840, %17 ], [ %20, %19 ], [ %.01840, %21 ], [ %.01840, %8 ]
  %.1 = phi i32 [ %.01741, %15 ], [ %.01741, %17 ], [ %.01741, %19 ], [ %22, %21 ], [ %.01741, %8 ]
  %indvars.iv.next = add nuw nsw i64 %indvars.iv, 1
  %exitcond.not = icmp eq i64 %indvars.iv.next, %wide.trip.count
  br i1 %exitcond.not, label %.critedge, label %8, !llvm.loop !62

.critedge:                                        ; preds = %23
  %24 = tail call i32 (ptr, ...) @printf(ptr noundef nonnull dereferenceable(1) @.str, i32 noundef %.123, i32 noundef %.121, i32 noundef %.119)
  %.not = icmp eq i32 %.1, 0
  br i1 %.not, label %27, label %25

25:                                               ; preds = %.critedge
  %26 = tail call i32 (ptr, ...) @printf(ptr noundef nonnull dereferenceable(1) @.str.1, i32 noundef %.1)
  br label %27

27:                                               ; preds = %.critedge.thread, %25, %.critedge
  %putchar = tail call i32 @putchar(i32 10)
  ret void
}